target datalayout = "e-m:e-p270:32:32-p271:32:32-p272:64:64-i64:64-i128:128-f80:128-n8:16:32:64-S128"
target triple = "x86_64-pc-linux-gnu"

%class.sls_engine = type { ptr, %"class.bv::sls_stats", %class.mpz_manager, %class.powers, %class.mpz, %class.mpz, %class.mpz, %class.bv_util, %class.sls_tracker, %class.sls_evaluator, %class.ptr_vector.25, i32, i32, i32, i32, i32, i32, i32, i32, i32, i32, i32, i32, i32, i32 }
%"class.bv::sls_stats" = type { i32, i32, i32, i32, i32, i32, i32, i32, %class.stopwatch }
%class.stopwatch = type <{ %"class.std::chrono::time_point", %"class.std::chrono::duration", i8, [7 x i8] }>
%"class.std::chrono::time_point" = type { %"class.std::chrono::duration" }
%"class.std::chrono::duration" = type { i64 }
%class.mpz_manager = type { %class.small_object_allocator, %"class.std::recursive_mutex", [4 x i8], i32, %class.mpz, %class.mpz }
%class.small_object_allocator = type { [32 x ptr], [32 x ptr], i64 }
%"class.std::recursive_mutex" = type { %"class.std::__recursive_mutex_base" }
%"class.std::__recursive_mutex_base" = type { %union.pthread_mutex_t }
%union.pthread_mutex_t = type { %struct.__pthread_mutex_s }
%struct.__pthread_mutex_s = type { i32, i32, i32, i32, i32, i16, i16, %struct.__pthread_internal_list }
%struct.__pthread_internal_list = type { ptr, ptr }
%class.powers = type { %class.u_map, ptr }
%class.u_map = type { %class.map }
%class.map = type { %class.table2map }
%class.table2map = type { %class.core_hashtable }
%class.core_hashtable = type <{ ptr, i32, i32, i32, [4 x i8] }>
%class.mpz = type { i32, i8, ptr }
%class.bv_util = type { %class.bv_recognizers, ptr, ptr }
%class.bv_recognizers = type { i32 }
%class.sls_tracker = type { ptr, ptr, ptr, ptr, %class.random_gen, i32, i32, %class.mpz, %class.mpz, %class.mpz, %class.obj_hashtable, %class.obj_map, %class.obj_map.4, %class.obj_map.9, %class.ptr_vector, %class.ptr_vector, %class.obj_map.14, i32, i32, i32, double, i32, double, double, i32, double, i32, [4 x i8], %class.obj_map.19, ptr, i32, [4 x i8], %class.obj_map.19, double, %class.obj_hashtable }
%class.random_gen = type { i32 }
%class.obj_map = type { %class.core_hashtable.2 }
%class.core_hashtable.2 = type <{ ptr, i32, i32, i32, [4 x i8] }>
%class.obj_map.4 = type { %class.core_hashtable.5 }
%class.core_hashtable.5 = type <{ ptr, i32, i32, i32, [4 x i8] }>
%class.obj_map.9 = type { %class.core_hashtable.10 }
%class.core_hashtable.10 = type <{ ptr, i32, i32, i32, [4 x i8] }>
%class.ptr_vector = type { %class.vector }
%class.vector = type { ptr }
%class.obj_map.14 = type { %class.core_hashtable.15 }
%class.core_hashtable.15 = type <{ ptr, i32, i32, i32, [4 x i8] }>
%class.obj_map.19 = type { %class.core_hashtable.20 }
%class.core_hashtable.20 = type <{ ptr, i32, i32, i32, [4 x i8] }>
%class.obj_hashtable = type { %class.core_hashtable.base.1, [4 x i8] }
%class.core_hashtable.base.1 = type <{ ptr, i32, i32, i32 }>
%class.sls_evaluator = type { ptr, ptr, i32, i32, ptr, ptr, %class.mpz, %class.mpz, %class.mpz, ptr, %class.ref_buffer, %class.vector.24, %class.vector.24 }
%class.ref_buffer = type { %class.ref_buffer_core }
%class.ref_buffer_core = type { %class.ref_manager_wrapper, %class.ptr_buffer }
%class.ref_manager_wrapper = type { ptr }
%class.ptr_buffer = type { %class.buffer }
%class.buffer = type { ptr, i32, i32, [128 x i8] }
%class.vector.24 = type { ptr }
%class.ptr_vector.25 = type { %class.vector.26 }
%class.vector.26 = type { ptr }

; Function Attrs: mustprogress uwtable
define linkonce_odr hidden void @_ZN6vectorIP4exprLb0EjE11free_memoryEv(ptr noundef nonnull align 8 dereferenceable(8) %0) #4 comdat align 2 {
  %2 = alloca ptr, align 8
  store ptr %0, ptr %2, align 8, !tbaa !127
  %3 = load ptr, ptr %2, align 8
  %4 = getelementptr inbounds nuw %class.vector.26, ptr %3, i32 0, i32 0
  %5 = load ptr, ptr %4, align 8, !tbaa !157
  %6 = getelementptr inbounds i32, ptr %5, i64 -2
  call void @_ZN6memory10deallocateEPv(ptr noundef %6)
  ret void
}

; Function Attrs: mustprogress uwtable
define linkonce_odr hidden void @_ZN6vectorIP4exprLb0EjE7destroyEv(ptr noundef nonnull align 8 dereferenceable(8) %0) #4 comdat align 2 {
  %2 = alloca ptr, align 8
  store ptr %0, ptr %2, align 8, !tbaa !127
  %3 = load ptr, ptr %2, align 8
  %4 = getelementptr inbounds nuw %class.vector.26, ptr %3, i32 0, i32 0
  %5 = load ptr, ptr %4, align 8, !tbaa !157
  %6 = icmp ne ptr %5, null
  br i1 %6, label %7, label %8

7:                                                ; preds = %1
  call void @_ZN6vectorIP4exprLb0EjE11free_memoryEv(ptr noundef nonnull align 8 dereferenceable(8) %3)
  br label %8

8:                                                ; preds = %7, %1
  ret void
}

; Function Attrs: mustprogress nounwind uwtable
define linkonce_odr hidden void @_ZN6vectorIP4exprLb0EjED2Ev(ptr noundef nonnull align 8 dereferenceable(8) %0) unnamed_addr #5 comdat align 2 personality ptr @__gxx_personality_v0 {
  %2 = alloca ptr, align 8
  store ptr %0, ptr %2, align 8, !tbaa !127
  %3 = load ptr, ptr %2, align 8
  invoke void @_ZN6vectorIP4exprLb0EjE7destroyEv(ptr noundef nonnull align 8 dereferenceable(8) %3)
          to label %4 unwind label %5

4:                                                ; preds = %1
  ret void

5:                                                ; preds = %1
  %6 = landingpad { ptr, i32 }
          catch ptr null
  %7 = extractvalue { ptr, i32 } %6, 0
  call void @__clang_call_terminate(ptr %7) #20
  unreachable
}

; Function Attrs: mustprogress uwtable
define linkonce_odr hidden void @_ZN11mpz_managerILb0EE3delER3mpz(ptr noundef nonnull align 8 dereferenceable(600) %0, ptr noundef nonnull align 8 dereferenceable(16) %1) #4 comdat align 2 {
  %3 = alloca ptr, align 8
  %4 = alloca ptr, align 8
  store ptr %0, ptr %3, align 8, !tbaa !31
  store ptr %1, ptr %4, align 8, !tbaa !137
  %5 = load ptr, ptr %3, align 8
  %6 = load ptr, ptr %4, align 8, !tbaa !137
  call void @_ZN11mpz_managerILb0EE3delEPS0_R3mpz(ptr noundef %5, ptr noundef nonnull align 8 dereferenceable(16) %6)
  ret void
}

; Function Attrs: mustprogress nounwind uwtable
define hidden void @_ZN10sls_engineD2Ev(ptr noundef nonnull align 8 dereferenceable(1496) %0) unnamed_addr #5 align 2 personality ptr @__gxx_personality_v0 {
  %2 = alloca ptr, align 8
  store ptr %0, ptr %2, align 8, !tbaa !3
  %3 = load ptr, ptr %2, align 8
  %4 = getelementptr inbounds nuw %class.sls_engine, ptr %3, i32 0, i32 2
  %5 = getelementptr inbounds nuw %class.sls_engine, ptr %3, i32 0, i32 4
  invoke void @_ZN11mpz_managerILb0EE3delER3mpz(ptr noundef nonnull align 8 dereferenceable(600) %4, ptr noundef nonnull align 8 dereferenceable(16) %5)
          to label %6 unwind label %18

6:                                                ; preds = %1
  %7 = getelementptr inbounds nuw %class.sls_engine, ptr %3, i32 0, i32 2
  %8 = getelementptr inbounds nuw %class.sls_engine, ptr %3, i32 0, i32 5
  invoke void @_ZN11mpz_managerILb0EE3delER3mpz(ptr noundef nonnull align 8 dereferenceable(600) %7, ptr noundef nonnull align 8 dereferenceable(16) %8)
          to label %9 unwind label %18

9:                                                ; preds = %6
  %10 = getelementptr inbounds nuw %class.sls_engine, ptr %3, i32 0, i32 2
  %11 = getelementptr inbounds nuw %class.sls_engine, ptr %3, i32 0, i32 6
  invoke void @_ZN11mpz_managerILb0EE3delER3mpz(ptr noundef nonnull align 8 dereferenceable(600) %10, ptr noundef nonnull align 8 dereferenceable(16) %11)
          to label %12 unwind label %18

12:                                               ; preds = %9
  %13 = getelementptr inbounds nuw %class.sls_engine, ptr %3, i32 0, i32 10
  call void @_ZN6vectorIP4exprLb0EjED2Ev(ptr noundef nonnull align 8 dereferenceable(8) %13) #3
  %14 = getelementptr inbounds nuw %class.sls_engine, ptr %3, i32 0, i32 9
  call void @_ZN13sls_evaluatorD2Ev(ptr noundef nonnull align 8 dereferenceable(264) %14) #3
  %15 = getelementptr inbounds nuw %class.sls_engine, ptr %3, i32 0, i32 8
  call void @_ZN11sls_trackerD2Ev(ptr noundef nonnull align 8 dereferenceable(400) %15) #3
  %16 = getelementptr inbounds nuw %class.sls_engine, ptr %3, i32 0, i32 3
  call void @_ZN6powersD2Ev(ptr noundef nonnull align 8 dereferenceable(32) %16) #3
  %17 = getelementptr inbounds nuw %class.sls_engine, ptr %3, i32 0, i32 2
  call void @_ZN11mpz_managerILb0EED1Ev(ptr noundef nonnull align 8 dereferenceable(600) %17) #3
  ret void

18:                                               ; preds = %9, %6, %1
  %19 = landingpad { ptr, i32 }
          catch ptr null
  %20 = extractvalue { ptr, i32 } %19, 0
  call void @__clang_call_terminate(ptr %20) #20
  unreachable
}