; Function Attrs: mustprogress nounwind uwtable
define hidden void @_ZN10sls_engineD2Ev(ptr noundef nonnull align 8 dereferenceable(1496) %0) unnamed_addr #4 align 2 personality ptr @__gxx_personality_v0 {
  %2 = getelementptr inbounds nuw i8, ptr %0, i64 64
  %3 = getelementptr inbounds nuw i8, ptr %0, i64 696
  invoke void @_ZN11mpz_managerILb0EE3delEPS0_R3mpz(ptr noundef nonnull align 8 dereferenceable(600) %2, ptr noundef nonnull align 8 dereferenceable(16) %3)
          to label %_ZN11mpz_managerILb0EE3delER3mpz.exit unwind label %16

_ZN11mpz_managerILb0EE3delER3mpz.exit:            ; preds = %1
  %4 = getelementptr inbounds nuw i8, ptr %0, i64 712
  invoke void @_ZN11mpz_managerILb0EE3delEPS0_R3mpz(ptr noundef nonnull align 8 dereferenceable(600) %2, ptr noundef nonnull align 8 dereferenceable(16) %4)
          to label %_ZN11mpz_managerILb0EE3delER3mpz.exit1 unwind label %16

_ZN11mpz_managerILb0EE3delER3mpz.exit1:           ; preds = %_ZN11mpz_managerILb0EE3delER3mpz.exit
  %5 = getelementptr inbounds nuw i8, ptr %0, i64 728
  invoke void @_ZN11mpz_managerILb0EE3delEPS0_R3mpz(ptr noundef nonnull align 8 dereferenceable(600) %2, ptr noundef nonnull align 8 dereferenceable(16) %5)
          to label %_ZN11mpz_managerILb0EE3delER3mpz.exit2 unwind label %16

_ZN11mpz_managerILb0EE3delER3mpz.exit2:           ; preds = %_ZN11mpz_managerILb0EE3delER3mpz.exit1
  %6 = getelementptr inbounds nuw i8, ptr %0, i64 1432
  %7 = load ptr, ptr %6, align 8, !tbaa !77
  %.not.i.i = icmp eq ptr %7, null
  br i1 %.not.i.i, label %_ZN6vectorIP4exprLb0EjED2Ev.exit, label %8

8:                                                ; preds = %_ZN11mpz_managerILb0EE3delER3mpz.exit2
  %9 = getelementptr inbounds i8, ptr %7, i64 -8
  invoke void @_ZN6memory10deallocateEPv(ptr noundef nonnull %9)
          to label %_ZN6vectorIP4exprLb0EjED2Ev.exit unwind label %10

10:                                               ; preds = %8
  %11 = landingpad { ptr, i32 }
          catch ptr null
  %12 = extractvalue { ptr, i32 } %11, 0
  tail call void @__clang_call_terminate(ptr %12) #26
  unreachable

_ZN6vectorIP4exprLb0EjED2Ev.exit:                 ; preds = %_ZN11mpz_managerILb0EE3delER3mpz.exit2, %8
  %13 = getelementptr inbounds nuw i8, ptr %0, i64 1168
  tail call void @_ZN13sls_evaluatorD2Ev(ptr noundef nonnull align 8 dereferenceable(264) %13) #25
  %14 = getelementptr inbounds nuw i8, ptr %0, i64 768
  tail call void @_ZN11sls_trackerD2Ev(ptr noundef nonnull align 8 dereferenceable(400) %14) #25
  %15 = getelementptr inbounds nuw i8, ptr %0, i64 664
  tail call void @_ZN6powersD2Ev(ptr noundef nonnull align 8 dereferenceable(32) %15) #25
  tail call void @_ZN11mpz_managerILb0EED1Ev(ptr noundef nonnull align 8 dereferenceable(600) %2) #25
  ret void

16:                                               ; preds = %_ZN11mpz_managerILb0EE3delER3mpz.exit1, %_ZN11mpz_managerILb0EE3delER3mpz.exit, %1
  %17 = landingpad { ptr, i32 }
          catch ptr null
  %18 = extractvalue { ptr, i32 } %17, 0
  tail call void @__clang_call_terminate(ptr %18) #26
  unreachable
}